target datalayout = "e-m:e-p270:32:32-p271:32:32-p272:64:64-i64:64-i128:128-f80:128-n8:16:32:64-S128"
target triple = "x86_64-pc-linux-gnu"

@.str.9 = private unnamed_addr constant [5 x i8] c"hour\00", align 1
@.str.10 = private unnamed_addr constant [4 x i8] c"min\00", align 1
@.str.11 = private unnamed_addr constant [4 x i8] c"sec\00", align 1
@.str.12 = private unnamed_addr constant [13 x i8] c"sec_fraction\00", align 1
@.str.32 = private unnamed_addr constant [3 x i8] c"jd\00", align 1
@.str.115 = private unnamed_addr constant [7 x i8] c"offset\00", align 1
@.str.161 = private unnamed_addr constant [4 x i8] c"div\00", align 1
@rt_rewrite_frags.rbimpl_id = internal global i64 0, align 8
@.str.188 = private unnamed_addr constant [8 x i8] c"seconds\00", align 1
@rt_rewrite_frags.rbimpl_id.189 = internal global i64 0, align 8
@rt_rewrite_frags.rbimpl_id.190 = internal global i64 0, align 8
@rt_rewrite_frags.rbimpl_id.191 = internal global i64 0, align 8
@rt_rewrite_frags.rbimpl_id.192 = internal global i64 0, align 8
@rt_rewrite_frags.rbimpl_id.193 = internal global i64 0, align 8
@rt_rewrite_frags.rbimpl_id.194 = internal global i64 0, align 8
@rt_rewrite_frags.rbimpl_id.195 = internal global i64 0, align 8
@rt_rewrite_frags.rbimpl_id.196 = internal global i64 0, align 8
@rt_rewrite_frags.rbimpl_id.197 = internal global i64 0, align 8
@rt_rewrite_frags.rbimpl_id.198 = internal global i64 0, align 8

; Function Attrs: inlinehint nounwind sspstrong willreturn memory(read) uwtable
define internal i64 @rb_intern_const(ptr noundef nonnull %0) #2 {
  %2 = alloca ptr, align 8
  %3 = alloca i64, align 8
  store ptr %0, ptr %2, align 8, !tbaa !12
  call void @llvm.lifetime.start.p0(i64 8, ptr %3) #23
  %4 = load ptr, ptr %2, align 8, !tbaa !12
  %5 = call i64 @strlen(ptr noundef %4) #22
  store i64 %5, ptr %3, align 8, !tbaa !6
  %6 = load ptr, ptr %2, align 8, !tbaa !12
  %7 = load i64, ptr %3, align 8, !tbaa !6
  %8 = call i64 @rb_intern2(ptr noundef %6, i64 noundef %7)
  call void @llvm.lifetime.end.p0(i64 8, ptr %3) #23
  ret i64 %8
}

; Function Attrs: inlinehint nounwind sspstrong willreturn memory(none) uwtable
define internal zeroext i1 @RB_NIL_P(i64 noundef %0) #6 {
  %2 = alloca i64, align 8
  store i64 %0, ptr %2, align 8, !tbaa !6
  %3 = load i64, ptr %2, align 8, !tbaa !6
  %4 = icmp eq i64 %3, 4
  ret i1 %4
}

; Function Attrs: inlinehint nounwind sspstrong memory(argmem: readwrite, inaccessiblemem: readwrite) uwtable
define internal i64 @rbimpl_intern_const(ptr noundef nonnull %0, ptr noundef nonnull %1) #13 {
  %3 = alloca ptr, align 8
  %4 = alloca ptr, align 8
  store ptr %0, ptr %3, align 8, !tbaa !21
  store ptr %1, ptr %4, align 8, !tbaa !12
  br label %5

5:                                                ; preds = %10, %2
  %6 = load ptr, ptr %3, align 8, !tbaa !21
  %7 = load i64, ptr %6, align 8, !tbaa !6
  %8 = icmp ne i64 %7, 0
  %9 = xor i1 %8, true
  br i1 %9, label %10, label %14

10:                                               ; preds = %5
  %11 = load ptr, ptr %4, align 8, !tbaa !12
  %12 = call i64 @rb_intern_const(ptr noundef %11) #22
  %13 = load ptr, ptr %3, align 8, !tbaa !21
  store i64 %12, ptr %13, align 8, !tbaa !6
  br label %5, !llvm.loop !76

14:                                               ; preds = %5
  %15 = load ptr, ptr %3, align 8, !tbaa !21
  %16 = load i64, ptr %15, align 8, !tbaa !6
  ret i64 %16
}

; Function Attrs: nounwind sspstrong uwtable
define internal i64 @rt_rewrite_frags(i64 noundef %0) #0 {
  %2 = alloca i64, align 8
  %3 = alloca i64, align 8
  %4 = alloca i64, align 8
  %5 = alloca i64, align 8
  %6 = alloca i64, align 8
  %7 = alloca i64, align 8
  %8 = alloca i64, align 8
  %9 = alloca i64, align 8
  %10 = alloca i64, align 8
  %11 = alloca i64, align 8
  %12 = alloca i64, align 8
  %13 = alloca i64, align 8
  %14 = alloca i64, align 8
  %15 = alloca i64, align 8
  %16 = alloca i64, align 8
  %17 = alloca i64, align 8
  %18 = alloca i64, align 8
  %19 = alloca i64, align 8
  %20 = alloca i64, align 8
  store i64 %0, ptr %2, align 8, !tbaa !6
  call void @llvm.lifetime.start.p0(i64 8, ptr %3) #23
  %21 = load i64, ptr %2, align 8, !tbaa !6
  %22 = call i64 @rbimpl_intern_const(ptr noundef @rt_rewrite_frags.rbimpl_id, ptr noundef @.str.188) #26
  store i64 %22, ptr %4, align 8, !tbaa !6
  %23 = load i64, ptr %4, align 8, !tbaa !6
  %24 = call i64 @rb_id2sym(i64 noundef %23)
  %25 = call i64 @rb_hash_delete(i64 noundef %21, i64 noundef %24)
  store i64 %25, ptr %3, align 8, !tbaa !6
  %26 = load i64, ptr %3, align 8, !tbaa !6
  %27 = call zeroext i1 @RB_NIL_P(i64 noundef %26) #24
  br i1 %27, label %96, label %28

28:                                               ; preds = %1
  call void @llvm.lifetime.start.p0(i64 8, ptr %5) #23
  call void @llvm.lifetime.start.p0(i64 8, ptr %6) #23
  call void @llvm.lifetime.start.p0(i64 8, ptr %7) #23
  call void @llvm.lifetime.start.p0(i64 8, ptr %8) #23
  call void @llvm.lifetime.start.p0(i64 8, ptr %9) #23
  call void @llvm.lifetime.start.p0(i64 8, ptr %10) #23
  %29 = load i64, ptr %2, align 8, !tbaa !6
  %30 = call i64 @rbimpl_intern_const(ptr noundef @rt_rewrite_frags.rbimpl_id.189, ptr noundef @.str.115) #26
  store i64 %30, ptr %11, align 8, !tbaa !6
  %31 = load i64, ptr %11, align 8, !tbaa !6
  %32 = call i64 @rb_id2sym(i64 noundef %31)
  %33 = call i64 @rb_hash_aref(i64 noundef %29, i64 noundef %32)
  store i64 %33, ptr %5, align 8, !tbaa !6
  %34 = load i64, ptr %5, align 8, !tbaa !6
  %35 = call zeroext i1 @RB_NIL_P(i64 noundef %34) #24
  br i1 %35, label %40, label %36

36:                                               ; preds = %28
  %37 = load i64, ptr %3, align 8, !tbaa !6
  %38 = load i64, ptr %5, align 8, !tbaa !6
  %39 = call i64 (i64, i64, i32, ...) @rb_funcall(i64 noundef %37, i64 noundef 43, i32 noundef 1, i64 noundef %38)
  store i64 %39, ptr %3, align 8, !tbaa !6
  br label %40

40:                                               ; preds = %36, %28
  %41 = load i64, ptr %3, align 8, !tbaa !6
  %42 = call i64 @rbimpl_intern_const(ptr noundef @rt_rewrite_frags.rbimpl_id.190, ptr noundef @.str.161) #26
  store i64 %42, ptr %12, align 8, !tbaa !6
  %43 = load i64, ptr %12, align 8, !tbaa !6
  %44 = call i64 (i64, i64, i32, ...) @rb_funcall(i64 noundef %41, i64 noundef %43, i32 noundef 1, i64 noundef 172801)
  store i64 %44, ptr %6, align 8, !tbaa !6
  %45 = load i64, ptr %3, align 8, !tbaa !6
  %46 = call i64 (i64, i64, i32, ...) @rb_funcall(i64 noundef %45, i64 noundef 37, i32 noundef 1, i64 noundef 172801)
  store i64 %46, ptr %10, align 8, !tbaa !6
  %47 = load i64, ptr %10, align 8, !tbaa !6
  %48 = call i64 @rbimpl_intern_const(ptr noundef @rt_rewrite_frags.rbimpl_id.191, ptr noundef @.str.161) #26
  store i64 %48, ptr %13, align 8, !tbaa !6
  %49 = load i64, ptr %13, align 8, !tbaa !6
  %50 = call i64 (i64, i64, i32, ...) @rb_funcall(i64 noundef %47, i64 noundef %49, i32 noundef 1, i64 noundef 7201)
  store i64 %50, ptr %7, align 8, !tbaa !6
  %51 = load i64, ptr %10, align 8, !tbaa !6
  %52 = call i64 (i64, i64, i32, ...) @rb_funcall(i64 noundef %51, i64 noundef 37, i32 noundef 1, i64 noundef 7201)
  store i64 %52, ptr %10, align 8, !tbaa !6
  %53 = load i64, ptr %10, align 8, !tbaa !6
  %54 = call i64 @rbimpl_intern_const(ptr noundef @rt_rewrite_frags.rbimpl_id.192, ptr noundef @.str.161) #26
  store i64 %54, ptr %14, align 8, !tbaa !6
  %55 = load i64, ptr %14, align 8, !tbaa !6
  %56 = call i64 (i64, i64, i32, ...) @rb_funcall(i64 noundef %53, i64 noundef %55, i32 noundef 1, i64 noundef 121)
  store i64 %56, ptr %8, align 8, !tbaa !6
  %57 = load i64, ptr %10, align 8, !tbaa !6
  %58 = call i64 (i64, i64, i32, ...) @rb_funcall(i64 noundef %57, i64 noundef 37, i32 noundef 1, i64 noundef 121)
  store i64 %58, ptr %10, align 8, !tbaa !6
  %59 = load i64, ptr %10, align 8, !tbaa !6
  %60 = call i64 @rbimpl_intern_const(ptr noundef @rt_rewrite_frags.rbimpl_id.193, ptr noundef @.str.161) #26
  store i64 %60, ptr %15, align 8, !tbaa !6
  %61 = load i64, ptr %15, align 8, !tbaa !6
  %62 = call i64 (i64, i64, i32, ...) @rb_funcall(i64 noundef %59, i64 noundef %61, i32 noundef 1, i64 noundef 3)
  store i64 %62, ptr %9, align 8, !tbaa !6
  %63 = load i64, ptr %10, align 8, !tbaa !6
  %64 = call i64 (i64, i64, i32, ...) @rb_funcall(i64 noundef %63, i64 noundef 37, i32 noundef 1, i64 noundef 3)
  store i64 %64, ptr %10, align 8, !tbaa !6
  %65 = load i64, ptr %2, align 8, !tbaa !6
  %66 = call i64 @rbimpl_intern_const(ptr noundef @rt_rewrite_frags.rbimpl_id.194, ptr noundef @.str.32) #26
  store i64 %66, ptr %16, align 8, !tbaa !6
  %67 = load i64, ptr %16, align 8, !tbaa !6
  %68 = call i64 @rb_id2sym(i64 noundef %67)
  %69 = load i64, ptr %6, align 8, !tbaa !6
  %70 = call i64 (i64, i64, i32, ...) @rb_funcall(i64 noundef 4881177, i64 noundef 43, i32 noundef 1, i64 noundef %69)
  %71 = call i64 @rb_hash_aset(i64 noundef %65, i64 noundef %68, i64 noundef %70)
  %72 = load i64, ptr %2, align 8, !tbaa !6
  %73 = call i64 @rbimpl_intern_const(ptr noundef @rt_rewrite_frags.rbimpl_id.195, ptr noundef @.str.9) #26
  store i64 %73, ptr %17, align 8, !tbaa !6
  %74 = load i64, ptr %17, align 8, !tbaa !6
  %75 = call i64 @rb_id2sym(i64 noundef %74)
  %76 = load i64, ptr %7, align 8, !tbaa !6
  %77 = call i64 @rb_hash_aset(i64 noundef %72, i64 noundef %75, i64 noundef %76)
  %78 = load i64, ptr %2, align 8, !tbaa !6
  %79 = call i64 @rbimpl_intern_const(ptr noundef @rt_rewrite_frags.rbimpl_id.196, ptr noundef @.str.10) #26
  store i64 %79, ptr %18, align 8, !tbaa !6
  %80 = load i64, ptr %18, align 8, !tbaa !6
  %81 = call i64 @rb_id2sym(i64 noundef %80)
  %82 = load i64, ptr %8, align 8, !tbaa !6
  %83 = call i64 @rb_hash_aset(i64 noundef %78, i64 noundef %81, i64 noundef %82)
  %84 = load i64, ptr %2, align 8, !tbaa !6
  %85 = call i64 @rbimpl_intern_const(ptr noundef @rt_rewrite_frags.rbimpl_id.197, ptr noundef @.str.11) #26
  store i64 %85, ptr %19, align 8, !tbaa !6
  %86 = load i64, ptr %19, align 8, !tbaa !6
  %87 = call i64 @rb_id2sym(i64 noundef %86)
  %88 = load i64, ptr %9, align 8, !tbaa !6
  %89 = call i64 @rb_hash_aset(i64 noundef %84, i64 noundef %87, i64 noundef %88)
  %90 = load i64, ptr %2, align 8, !tbaa !6
  %91 = call i64 @rbimpl_intern_const(ptr noundef @rt_rewrite_frags.rbimpl_id.198, ptr noundef @.str.12) #26
  store i64 %91, ptr %20, align 8, !tbaa !6
  %92 = load i64, ptr %20, align 8, !tbaa !6
  %93 = call i64 @rb_id2sym(i64 noundef %92)
  %94 = load i64, ptr %10, align 8, !tbaa !6
  %95 = call i64 @rb_hash_aset(i64 noundef %90, i64 noundef %93, i64 noundef %94)
  call void @llvm.lifetime.end.p0(i64 8, ptr %10) #23
  call void @llvm.lifetime.end.p0(i64 8, ptr %9) #23
  call void @llvm.lifetime.end.p0(i64 8, ptr %8) #23
  call void @llvm.lifetime.end.p0(i64 8, ptr %7) #23
  call void @llvm.lifetime.end.p0(i64 8, ptr %6) #23
  call void @llvm.lifetime.end.p0(i64 8, ptr %5) #23
  br label %96

96:                                               ; preds = %40, %1
  %97 = load i64, ptr %2, align 8, !tbaa !6
  call void @llvm.lifetime.end.p0(i64 8, ptr %3) #23
  ret i64 %97
}