; Function Attrs: nounwind sspstrong uwtable
define internal fastcc noundef i64 @rt_rewrite_frags(i64 noundef returned %0) unnamed_addr #0 {
  %.pr.i = load i64, ptr @rt_rewrite_frags.rbimpl_id, align 8, !tbaa !6
  %.not4.i = icmp eq i64 %.pr.i, 0
  br i1 %.not4.i, label %.lr.ph.i, label %rbimpl_intern_const.exit

.lr.ph.i:                                         ; preds = %1, %.lr.ph.i
  %2 = tail call i64 @rb_intern2(ptr noundef nonnull @.str.188, i64 noundef 7) #21
  store i64 %2, ptr @rt_rewrite_frags.rbimpl_id, align 8, !tbaa !6
  %.not.i = icmp eq i64 %2, 0
  br i1 %.not.i, label %.lr.ph.i, label %rbimpl_intern_const.exit, !llvm.loop !51

rbimpl_intern_const.exit:                         ; preds = %.lr.ph.i, %1
  %.lcssa.i = phi i64 [ %.pr.i, %1 ], [ %2, %.lr.ph.i ]
  %3 = tail call i64 @rb_id2sym(i64 noundef %.lcssa.i) #21
  %4 = tail call i64 @rb_hash_delete(i64 noundef %0, i64 noundef %3) #21
  %5 = icmp eq i64 %4, 4
  br i1 %5, label %42, label %6

6:                                                ; preds = %rbimpl_intern_const.exit
  %.pr.i36 = load i64, ptr @rt_rewrite_frags.rbimpl_id.189, align 8, !tbaa !6
  %.not4.i37 = icmp eq i64 %.pr.i36, 0
  br i1 %.not4.i37, label %.lr.ph.i39, label %rbimpl_intern_const.exit41

.lr.ph.i39:                                       ; preds = %6, %.lr.ph.i39
  %7 = tail call i64 @rb_intern2(ptr noundef nonnull @.str.115, i64 noundef 6) #21
  store i64 %7, ptr @rt_rewrite_frags.rbimpl_id.189, align 8, !tbaa !6
  %.not.i40 = icmp eq i64 %7, 0
  br i1 %.not.i40, label %.lr.ph.i39, label %rbimpl_intern_const.exit41, !llvm.loop !51

rbimpl_intern_const.exit41:                       ; preds = %.lr.ph.i39, %6
  %.lcssa.i38 = phi i64 [ %.pr.i36, %6 ], [ %7, %.lr.ph.i39 ]
  %8 = tail call i64 @rb_id2sym(i64 noundef %.lcssa.i38) #21
  %9 = tail call i64 @rb_hash_aref(i64 noundef %0, i64 noundef %8) #21
  %10 = icmp eq i64 %9, 4
  br i1 %10, label %13, label %11

11:                                               ; preds = %rbimpl_intern_const.exit41
  %12 = tail call i64 (i64, i64, i32, ...) @rb_funcall(i64 noundef %4, i64 noundef 43, i32 noundef 1, i64 noundef %9) #21
  br label %13

13:                                               ; preds = %11, %rbimpl_intern_const.exit41
  %.0 = phi i64 [ %4, %rbimpl_intern_const.exit41 ], [ %12, %11 ]
  %.pr.i42 = load i64, ptr @rt_rewrite_frags.rbimpl_id.190, align 8, !tbaa !6
  %.not4.i43 = icmp eq i64 %.pr.i42, 0
  br i1 %.not4.i43, label %.lr.ph.i45, label %rbimpl_intern_const.exit47

.lr.ph.i45:                                       ; preds = %13, %.lr.ph.i45
  %14 = tail call i64 @rb_intern2(ptr noundef nonnull @.str.161, i64 noundef 3) #21
  store i64 %14, ptr @rt_rewrite_frags.rbimpl_id.190, align 8, !tbaa !6
  %.not.i46 = icmp eq i64 %14, 0
  br i1 %.not.i46, label %.lr.ph.i45, label %rbimpl_intern_const.exit47, !llvm.loop !51

rbimpl_intern_const.exit47:                       ; preds = %.lr.ph.i45, %13
  %.lcssa.i44 = phi i64 [ %.pr.i42, %13 ], [ %14, %.lr.ph.i45 ]
  %15 = tail call i64 (i64, i64, i32, ...) @rb_funcall(i64 noundef %.0, i64 noundef %.lcssa.i44, i32 noundef 1, i64 noundef 172801) #21
  %16 = tail call i64 (i64, i64, i32, ...) @rb_funcall(i64 noundef %.0, i64 noundef 37, i32 noundef 1, i64 noundef 172801) #21
  %.pr.i48 = load i64, ptr @rt_rewrite_frags.rbimpl_id.191, align 8, !tbaa !6
  %.not4.i49 = icmp eq i64 %.pr.i48, 0
  br i1 %.not4.i49, label %.lr.ph.i51, label %rbimpl_intern_const.exit53

.lr.ph.i51:                                       ; preds = %rbimpl_intern_const.exit47, %.lr.ph.i51
  %17 = tail call i64 @rb_intern2(ptr noundef nonnull @.str.161, i64 noundef 3) #21
  store i64 %17, ptr @rt_rewrite_frags.rbimpl_id.191, align 8, !tbaa !6
  %.not.i52 = icmp eq i64 %17, 0
  br i1 %.not.i52, label %.lr.ph.i51, label %rbimpl_intern_const.exit53, !llvm.loop !51

rbimpl_intern_const.exit53:                       ; preds = %.lr.ph.i51, %rbimpl_intern_const.exit47
  %.lcssa.i50 = phi i64 [ %.pr.i48, %rbimpl_intern_const.exit47 ], [ %17, %.lr.ph.i51 ]
  %18 = tail call i64 (i64, i64, i32, ...) @rb_funcall(i64 noundef %16, i64 noundef %.lcssa.i50, i32 noundef 1, i64 noundef 7201) #21
  %19 = tail call i64 (i64, i64, i32, ...) @rb_funcall(i64 noundef %16, i64 noundef 37, i32 noundef 1, i64 noundef 7201) #21
  %.pr.i54 = load i64, ptr @rt_rewrite_frags.rbimpl_id.192, align 8, !tbaa !6
  %.not4.i55 = icmp eq i64 %.pr.i54, 0
  br i1 %.not4.i55, label %.lr.ph.i57, label %rbimpl_intern_const.exit59

.lr.ph.i57:                                       ; preds = %rbimpl_intern_const.exit53, %.lr.ph.i57
  %20 = tail call i64 @rb_intern2(ptr noundef nonnull @.str.161, i64 noundef 3) #21
  store i64 %20, ptr @rt_rewrite_frags.rbimpl_id.192, align 8, !tbaa !6
  %.not.i58 = icmp eq i64 %20, 0
  br i1 %.not.i58, label %.lr.ph.i57, label %rbimpl_intern_const.exit59, !llvm.loop !51

rbimpl_intern_const.exit59:                       ; preds = %.lr.ph.i57, %rbimpl_intern_const.exit53
  %.lcssa.i56 = phi i64 [ %.pr.i54, %rbimpl_intern_const.exit53 ], [ %20, %.lr.ph.i57 ]
  %21 = tail call i64 (i64, i64, i32, ...) @rb_funcall(i64 noundef %19, i64 noundef %.lcssa.i56, i32 noundef 1, i64 noundef 121) #21
  %22 = tail call i64 (i64, i64, i32, ...) @rb_funcall(i64 noundef %19, i64 noundef 37, i32 noundef 1, i64 noundef 121) #21
  %.pr.i60 = load i64, ptr @rt_rewrite_frags.rbimpl_id.193, align 8, !tbaa !6
  %.not4.i61 = icmp eq i64 %.pr.i60, 0
  br i1 %.not4.i61, label %.lr.ph.i63, label %rbimpl_intern_const.exit65

.lr.ph.i63:                                       ; preds = %rbimpl_intern_const.exit59, %.lr.ph.i63
  %23 = tail call i64 @rb_intern2(ptr noundef nonnull @.str.161, i64 noundef 3) #21
  store i64 %23, ptr @rt_rewrite_frags.rbimpl_id.193, align 8, !tbaa !6
  %.not.i64 = icmp eq i64 %23, 0
  br i1 %.not.i64, label %.lr.ph.i63, label %rbimpl_intern_const.exit65, !llvm.loop !51

rbimpl_intern_const.exit65:                       ; preds = %.lr.ph.i63, %rbimpl_intern_const.exit59
  %.lcssa.i62 = phi i64 [ %.pr.i60, %rbimpl_intern_const.exit59 ], [ %23, %.lr.ph.i63 ]
  %24 = tail call i64 (i64, i64, i32, ...) @rb_funcall(i64 noundef %22, i64 noundef %.lcssa.i62, i32 noundef 1, i64 noundef 3) #21
  %25 = tail call i64 (i64, i64, i32, ...) @rb_funcall(i64 noundef %22, i64 noundef 37, i32 noundef 1, i64 noundef 3) #21
  %.pr.i66 = load i64, ptr @rt_rewrite_frags.rbimpl_id.194, align 8, !tbaa !6
  %.not4.i67 = icmp eq i64 %.pr.i66, 0
  br i1 %.not4.i67, label %.lr.ph.i69, label %rbimpl_intern_const.exit71

.lr.ph.i69:                                       ; preds = %rbimpl_intern_const.exit65, %.lr.ph.i69
  %26 = tail call i64 @rb_intern2(ptr noundef nonnull @.str.32, i64 noundef 2) #21
  store i64 %26, ptr @rt_rewrite_frags.rbimpl_id.194, align 8, !tbaa !6
  %.not.i70 = icmp eq i64 %26, 0
  br i1 %.not.i70, label %.lr.ph.i69, label %rbimpl_intern_const.exit71, !llvm.loop !51

rbimpl_intern_const.exit71:                       ; preds = %.lr.ph.i69, %rbimpl_intern_const.exit65
  %.lcssa.i68 = phi i64 [ %.pr.i66, %rbimpl_intern_const.exit65 ], [ %26, %.lr.ph.i69 ]
  %27 = tail call i64 @rb_id2sym(i64 noundef %.lcssa.i68) #21
  %28 = tail call i64 (i64, i64, i32, ...) @rb_funcall(i64 noundef 4881177, i64 noundef 43, i32 noundef 1, i64 noundef %15) #21
  %29 = tail call i64 @rb_hash_aset(i64 noundef %0, i64 noundef %27, i64 noundef %28) #21
  %.pr.i72 = load i64, ptr @rt_rewrite_frags.rbimpl_id.195, align 8, !tbaa !6
  %.not4.i73 = icmp eq i64 %.pr.i72, 0
  br i1 %.not4.i73, label %.lr.ph.i75, label %rbimpl_intern_const.exit77

.lr.ph.i75:                                       ; preds = %rbimpl_intern_const.exit71, %.lr.ph.i75
  %30 = tail call i64 @rb_intern2(ptr noundef nonnull @.str.9, i64 noundef 4) #21
  store i64 %30, ptr @rt_rewrite_frags.rbimpl_id.195, align 8, !tbaa !6
  %.not.i76 = icmp eq i64 %30, 0
  br i1 %.not.i76, label %.lr.ph.i75, label %rbimpl_intern_const.exit77, !llvm.loop !51

rbimpl_intern_const.exit77:                       ; preds = %.lr.ph.i75, %rbimpl_intern_const.exit71
  %.lcssa.i74 = phi i64 [ %.pr.i72, %rbimpl_intern_const.exit71 ], [ %30, %.lr.ph.i75 ]
  %31 = tail call i64 @rb_id2sym(i64 noundef %.lcssa.i74) #21
  %32 = tail call i64 @rb_hash_aset(i64 noundef %0, i64 noundef %31, i64 noundef %18) #21
  %.pr.i78 = load i64, ptr @rt_rewrite_frags.rbimpl_id.196, align 8, !tbaa !6
  %.not4.i79 = icmp eq i64 %.pr.i78, 0
  br i1 %.not4.i79, label %.lr.ph.i81, label %rbimpl_intern_const.exit83

.lr.ph.i81:                                       ; preds = %rbimpl_intern_const.exit77, %.lr.ph.i81
  %33 = tail call i64 @rb_intern2(ptr noundef nonnull @.str.10, i64 noundef 3) #21
  store i64 %33, ptr @rt_rewrite_frags.rbimpl_id.196, align 8, !tbaa !6
  %.not.i82 = icmp eq i64 %33, 0
  br i1 %.not.i82, label %.lr.ph.i81, label %rbimpl_intern_const.exit83, !llvm.loop !51

rbimpl_intern_const.exit83:                       ; preds = %.lr.ph.i81, %rbimpl_intern_const.exit77
  %.lcssa.i80 = phi i64 [ %.pr.i78, %rbimpl_intern_const.exit77 ], [ %33, %.lr.ph.i81 ]
  %34 = tail call i64 @rb_id2sym(i64 noundef %.lcssa.i80) #21
  %35 = tail call i64 @rb_hash_aset(i64 noundef %0, i64 noundef %34, i64 noundef %21) #21
  %.pr.i84 = load i64, ptr @rt_rewrite_frags.rbimpl_id.197, align 8, !tbaa !6
  %.not4.i85 = icmp eq i64 %.pr.i84, 0
  br i1 %.not4.i85, label %.lr.ph.i87, label %rbimpl_intern_const.exit89

.lr.ph.i87:                                       ; preds = %rbimpl_intern_const.exit83, %.lr.ph.i87
  %36 = tail call i64 @rb_intern2(ptr noundef nonnull @.str.11, i64 noundef 3) #21
  store i64 %36, ptr @rt_rewrite_frags.rbimpl_id.197, align 8, !tbaa !6
  %.not.i88 = icmp eq i64 %36, 0
  br i1 %.not.i88, label %.lr.ph.i87, label %rbimpl_intern_const.exit89, !llvm.loop !51

rbimpl_intern_const.exit89:                       ; preds = %.lr.ph.i87, %rbimpl_intern_const.exit83
  %.lcssa.i86 = phi i64 [ %.pr.i84, %rbimpl_intern_const.exit83 ], [ %36, %.lr.ph.i87 ]
  %37 = tail call i64 @rb_id2sym(i64 noundef %.lcssa.i86) #21
  %38 = tail call i64 @rb_hash_aset(i64 noundef %0, i64 noundef %37, i64 noundef %24) #21
  %.pr.i90 = load i64, ptr @rt_rewrite_frags.rbimpl_id.198, align 8, !tbaa !6
  %.not4.i91 = icmp eq i64 %.pr.i90, 0
  br i1 %.not4.i91, label %.lr.ph.i93, label %rbimpl_intern_const.exit95

.lr.ph.i93:                                       ; preds = %rbimpl_intern_const.exit89, %.lr.ph.i93
  %39 = tail call i64 @rb_intern2(ptr noundef nonnull @.str.12, i64 noundef 12) #21
  store i64 %39, ptr @rt_rewrite_frags.rbimpl_id.198, align 8, !tbaa !6
  %.not.i94 = icmp eq i64 %39, 0
  br i1 %.not.i94, label %.lr.ph.i93, label %rbimpl_intern_const.exit95, !llvm.loop !51

rbimpl_intern_const.exit95:                       ; preds = %.lr.ph.i93, %rbimpl_intern_const.exit89
  %.lcssa.i92 = phi i64 [ %.pr.i90, %rbimpl_intern_const.exit89 ], [ %39, %.lr.ph.i93 ]
  %40 = tail call i64 @rb_id2sym(i64 noundef %.lcssa.i92) #21
  %41 = tail call i64 @rb_hash_aset(i64 noundef %0, i64 noundef %40, i64 noundef %25) #21
  br label %42

42:                                               ; preds = %rbimpl_intern_const.exit95, %rbimpl_intern_const.exit
  ret i64 %0
}